target datalayout = "e-m:e-p270:32:32-p271:32:32-p272:64:64-i64:64-i128:128-f80:128-n8:16:32:64-S128"
target triple = "x86_64-pc-linux-gnu"

%class.TypeInt = type { %class.TypeInteger.base, i32, i32 }
%class.TypeInteger.base = type { %class.Type.base, i16 }
%class.Type.base = type <{ ptr, ptr, i32 }>
%class.TypeInteger = type { %class.Type.base, i16, [2 x i8] }

; Function Attrs: mustprogress nounwind uwtable
define linkonce_odr hidden noundef signext i16 @_Z4MAX2IsET_S0_S0_(i16 noundef signext %0, i16 noundef signext %1) #1 comdat {
  %3 = alloca i16, align 2
  %4 = alloca i16, align 2
  store i16 %0, ptr %3, align 2
  store i16 %1, ptr %4, align 2
  %5 = load i16, ptr %3, align 2
  %6 = sext i16 %5 to i32
  %7 = load i16, ptr %4, align 2
  %8 = sext i16 %7 to i32
  %9 = icmp sgt i32 %6, %8
  br i1 %9, label %10, label %12

10:                                               ; preds = %2
  %11 = load i16, ptr %3, align 2
  br label %14

12:                                               ; preds = %2
  %13 = load i16, ptr %4, align 2
  br label %14

14:                                               ; preds = %12, %10
  %15 = phi i16 [ %11, %10 ], [ %13, %12 ]
  ret i16 %15
}

; Function Attrs: mustprogress nounwind uwtable
define linkonce_odr hidden noundef i32 @_Z4MIN2IiET_S0_S0_(i32 noundef %0, i32 noundef %1) #1 comdat {
  %3 = alloca i32, align 4
  %4 = alloca i32, align 4
  store i32 %0, ptr %3, align 4
  store i32 %1, ptr %4, align 4
  %5 = load i32, ptr %3, align 4
  %6 = load i32, ptr %4, align 4
  %7 = icmp slt i32 %5, %6
  br i1 %7, label %8, label %10

8:                                                ; preds = %2
  %9 = load i32, ptr %3, align 4
  br label %12

10:                                               ; preds = %2
  %11 = load i32, ptr %4, align 4
  br label %12

12:                                               ; preds = %10, %8
  %13 = phi i32 [ %9, %8 ], [ %11, %10 ]
  ret i32 %13
}

; Function Attrs: mustprogress nounwind uwtable
define linkonce_odr hidden noundef ptr @_ZNK4Type6is_intEv(ptr noundef nonnull align 8 dereferenceable(20) %0) #1 comdat align 2 {
  %2 = alloca ptr, align 8
  store ptr %0, ptr %2, align 8
  %3 = load ptr, ptr %2, align 8
  ret ptr %3
}

; Function Attrs: mustprogress nounwind uwtable
define hidden noundef ptr @_ZNK8MinINode8add_ringEPK4TypeS2_(ptr noundef nonnull align 8 dereferenceable(52) %0, ptr noundef %1, ptr noundef %2) unnamed_addr #1 align 2 {
  %4 = alloca ptr, align 8
  %5 = alloca ptr, align 8
  %6 = alloca ptr, align 8
  %7 = alloca ptr, align 8
  %8 = alloca ptr, align 8
  store ptr %0, ptr %4, align 8
  store ptr %1, ptr %5, align 8
  store ptr %2, ptr %6, align 8
  %9 = load ptr, ptr %5, align 8
  %10 = call noundef ptr @_ZNK4Type6is_intEv(ptr noundef nonnull align 8 dereferenceable(20) %9)
  store ptr %10, ptr %7, align 8
  %11 = load ptr, ptr %6, align 8
  %12 = call noundef ptr @_ZNK4Type6is_intEv(ptr noundef nonnull align 8 dereferenceable(20) %11)
  store ptr %12, ptr %8, align 8
  %13 = load ptr, ptr %7, align 8
  %14 = getelementptr inbounds %class.TypeInt, ptr %13, i32 0, i32 1
  %15 = load i32, ptr %14, align 8
  %16 = load ptr, ptr %8, align 8
  %17 = getelementptr inbounds %class.TypeInt, ptr %16, i32 0, i32 1
  %18 = load i32, ptr %17, align 8
  %19 = call noundef i32 @_Z4MIN2IiET_S0_S0_(i32 noundef %15, i32 noundef %18)
  %20 = load ptr, ptr %7, align 8
  %21 = getelementptr inbounds %class.TypeInt, ptr %20, i32 0, i32 2
  %22 = load i32, ptr %21, align 4
  %23 = load ptr, ptr %8, align 8
  %24 = getelementptr inbounds %class.TypeInt, ptr %23, i32 0, i32 2
  %25 = load i32, ptr %24, align 4
  %26 = call noundef i32 @_Z4MIN2IiET_S0_S0_(i32 noundef %22, i32 noundef %25)
  %27 = load ptr, ptr %7, align 8
  %28 = getelementptr inbounds %class.TypeInteger, ptr %27, i32 0, i32 1
  %29 = load i16, ptr %28, align 4
  %30 = load ptr, ptr %8, align 8
  %31 = getelementptr inbounds %class.TypeInteger, ptr %30, i32 0, i32 1
  %32 = load i16, ptr %31, align 4
  %33 = call noundef signext i16 @_Z4MAX2IsET_S0_S0_(i16 noundef signext %29, i16 noundef signext %32)
  %34 = sext i16 %33 to i32
  %35 = call noundef ptr @_ZN7TypeInt4makeEiii(i32 noundef %19, i32 noundef %26, i32 noundef %34)
  ret ptr %35
}